; Function Attrs: mustprogress nofree norecurse nosync nounwind willreturn memory(read, inaccessiblemem: none) uwtable
define dso_local noundef i64 @_ZN9struct_pb8internal15get_needed_sizeIN11conformance10FailureSetEEEmRKT_RKNS_13UnknownFieldsE(ptr nocapture noundef nonnull readonly align 8 dereferenceable(24) %t, ptr nocapture noundef nonnull readonly align 8 dereferenceable(24) %unknown_fields) local_unnamed_addr #0 {
entry:
  %0 = load ptr, ptr %unknown_fields, align 8
  %_M_finish.i.i = getelementptr inbounds i8, ptr %unknown_fields, i64 8
  %1 = load ptr, ptr %_M_finish.i.i, align 8
  %cmp.i5.i = icmp eq ptr %0, %1
  br i1 %cmp.i5.i, label %_ZNK9struct_pb13UnknownFields10total_sizeEv.exit, label %for.body.i

for.body.i:                                       ; preds = %entry, %for.body.i
  %total.07.i = phi i64 [ %add.i, %for.body.i ], [ 0, %entry ]
  %__begin2.sroa.0.06.i = phi ptr [ %incdec.ptr.i.i, %for.body.i ], [ %0, %entry ]
  %len.i = getelementptr inbounds i8, ptr %__begin2.sroa.0.06.i, i64 8
  %2 = load i64, ptr %len.i, align 8
  %add.i = add i64 %2, %total.07.i
  %incdec.ptr.i.i = getelementptr inbounds i8, ptr %__begin2.sroa.0.06.i, i64 16
  %cmp.i.i = icmp eq ptr %incdec.ptr.i.i, %1
  br i1 %cmp.i.i, label %_ZNK9struct_pb13UnknownFields10total_sizeEv.exit, label %for.body.i

_ZNK9struct_pb13UnknownFields10total_sizeEv.exit: ; preds = %for.body.i, %entry
  %total.0.lcssa.i = phi i64 [ 0, %entry ], [ %add.i, %for.body.i ]
  %3 = load ptr, ptr %t, align 8
  %_M_finish.i = getelementptr inbounds i8, ptr %t, i64 8
  %4 = load ptr, ptr %_M_finish.i, align 8
  %cmp.i9 = icmp eq ptr %3, %4
  br i1 %cmp.i9, label %for.end, label %for.body

for.body:                                         ; preds = %_ZNK9struct_pb13UnknownFields10total_sizeEv.exit, %_ZN9struct_pb8internal21calculate_varint_sizeEm.exit
  %total.011 = phi i64 [ %add10, %_ZN9struct_pb8internal21calculate_varint_sizeEm.exit ], [ %total.0.lcssa.i, %_ZNK9struct_pb13UnknownFields10total_sizeEv.exit ]
  %__begin2.sroa.0.010 = phi ptr [ %incdec.ptr.i, %_ZN9struct_pb8internal21calculate_varint_sizeEm.exit ], [ %3, %_ZNK9struct_pb13UnknownFields10total_sizeEv.exit ]
  %_M_string_length.i = getelementptr inbounds i8, ptr %__begin2.sroa.0.010, i64 8
  %5 = load i64, ptr %_M_string_length.i, align 8
  br label %do.body.i

do.body.i:                                        ; preds = %do.body.i, %for.body
  %ret.i.0 = phi i64 [ 0, %for.body ], [ %inc.i, %do.body.i ]
  %v.addr.i.0 = phi i64 [ %5, %for.body ], [ %shr.i, %do.body.i ]
  %inc.i = add nuw nsw i64 %ret.i.0, 1
  %shr.i = lshr i64 %v.addr.i.0, 7
  %cmp.i.not = icmp ult i64 %v.addr.i.0, 128
  br i1 %cmp.i.not, label %_ZN9struct_pb8internal21calculate_varint_sizeEm.exit, label %do.body.i, !llvm.loop !5

_ZN9struct_pb8internal21calculate_varint_sizeEm.exit: ; preds = %do.body.i
  %add = add i64 %total.011, 2
  %add9 = add i64 %add, %5
  %add10 = add i64 %add9, %ret.i.0
  %incdec.ptr.i = getelementptr inbounds i8, ptr %__begin2.sroa.0.010, i64 32
  %cmp.i = icmp eq ptr %incdec.ptr.i, %4
  br i1 %cmp.i, label %for.end, label %for.body

for.end:                                          ; preds = %_ZN9struct_pb8internal21calculate_varint_sizeEm.exit, %_ZNK9struct_pb13UnknownFields10total_sizeEv.exit
  %total.0.lcssa = phi i64 [ %total.0.lcssa.i, %_ZNK9struct_pb13UnknownFields10total_sizeEv.exit ], [ %add10, %_ZN9struct_pb8internal21calculate_varint_sizeEm.exit ]
  ret i64 %total.0.lcssa
}